; Function Attrs: mustprogress nounwind uwtable
define hidden void @_ZN15G1CollectionSet28drop_pinned_retained_regionsEP31G1CollectionCandidateRegionList(ptr noundef nonnull align 8 dereferenceable(160) %0, ptr noundef %1) local_unnamed_addr #1 align 2 {
  %3 = load i32, ptr %1, align 4
  %4 = icmp eq i32 %3, 0
  br i1 %4, label %.loopexit, label %5

5:                                                ; preds = %2
  %6 = getelementptr inbounds i8, ptr %0, i64 16
  tail call void @_ZN25G1CollectionSetCandidates6removeEP31G1CollectionCandidateRegionList(ptr noundef nonnull align 8 dereferenceable(72) %6, ptr noundef nonnull %1) #15
  %7 = load i32, ptr %1, align 4
  %.not12 = icmp eq i32 %7, 0
  br i1 %.not12, label %.loopexit, label %.lr.ph

.lr.ph:                                           ; preds = %5
  %8 = getelementptr inbounds i8, ptr %1, i64 8
  %9 = zext i32 %7 to i64
  br label %10

10:                                               ; preds = %.lr.ph, %10
  %indvars.iv = phi i64 [ 0, %.lr.ph ], [ %indvars.iv.next, %10 ]
  %11 = load ptr, ptr %8, align 8
  %12 = getelementptr inbounds ptr, ptr %11, i64 %indvars.iv
  %13 = load ptr, ptr %12, align 8
  %14 = getelementptr inbounds i8, ptr %13, i64 40
  %15 = load ptr, ptr %14, align 8
  tail call void @_ZN18G1HeapRegionRemSet5clearEbb(ptr noundef nonnull align 8 dereferenceable(84) %15, i1 noundef zeroext true, i1 noundef zeroext false) #15
  %indvars.iv.next = add nuw nsw i64 %indvars.iv, 1
  %.not = icmp eq i64 %indvars.iv.next, %9
  br i1 %.not, label %.loopexit, label %10

.loopexit:                                        ; preds = %10, %5, %2
  ret void
}